; Function Attrs: mustprogress uwtable
define void @_ZN2cv9GCompiled4Priv7reshapeERKSt6vectorINS_4util7variantIJNS3_9monostateENS_8GMatDescENS_11GScalarDescENS_10GArrayDescENS_11GOpaqueDescENS_10GFrameDescEEEESaISB_EERKS2_INS_11GCompileArgESaISG_EE(ptr noundef nonnull align 8 dereferenceable(56) %0, ptr noundef nonnull align 8 dereferenceable(24) %1, ptr noundef nonnull align 8 dereferenceable(24) %2) local_unnamed_addr #3 align 2 personality ptr @__gxx_personality_v0 {
  %4 = alloca %"class.std::__cxx11::basic_string", align 8
  %5 = alloca %"class.std::allocator.23", align 1
  %6 = getelementptr inbounds nuw i8, ptr %0, i64 48
  %7 = load ptr, ptr %6, align 8, !tbaa !3
  %.not = icmp eq ptr %7, null
  br i1 %.not, label %8, label %18

8:                                                ; preds = %3
  call void @llvm.lifetime.start.p0(i64 32, ptr nonnull %4) #25
  call void @llvm.lifetime.start.p0(i64 1, ptr nonnull %5) #25
  call void @_ZNSt7__cxx1112basic_stringIcSt11char_traitsIcESaIcEEC2EPKcRKS3_(ptr noundef nonnull align 8 dereferenceable(32) %4, ptr noundef nonnull @.str.1, ptr noundef nonnull align 1 dereferenceable(1) %5)
  invoke void @_ZN2cv5errorEiRKNSt7__cxx1112basic_stringIcSt11char_traitsIcESaIcEEEPKcS9_i(i32 noundef -215, ptr noundef nonnull align 8 dereferenceable(32) %4, ptr noundef nonnull @__func__._ZN2cv9GCompiled4Priv7reshapeERKSt6vectorINS_4util7variantIJNS3_9monostateENS_8GMatDescENS_11GScalarDescENS_10GArrayDescENS_11GOpaqueDescENS_10GFrameDescEEEESaISB_EERKS2_INS_11GCompileArgESaISG_EE, ptr noundef nonnull @.str.2, i32 noundef 76) #28
          to label %9 unwind label %10

9:                                                ; preds = %8
  unreachable

10:                                               ; preds = %8
  %11 = landingpad { ptr, i32 }
          cleanup
  %12 = load ptr, ptr %4, align 8, !tbaa !26
  %13 = getelementptr inbounds nuw i8, ptr %4, i64 16
  %14 = icmp eq ptr %12, %13
  br i1 %14, label %_ZNKSt7__cxx1112basic_stringIcSt11char_traitsIcESaIcEE11_M_is_localEv.exit.thread.i.i, label %_ZNKSt7__cxx1112basic_stringIcSt11char_traitsIcESaIcEE11_M_is_localEv.exit.i.i

_ZNKSt7__cxx1112basic_stringIcSt11char_traitsIcESaIcEE11_M_is_localEv.exit.thread.i.i: ; preds = %10
  %15 = getelementptr inbounds nuw i8, ptr %4, i64 8
  %16 = load i64, ptr %15, align 8, !tbaa !30
  %17 = icmp ult i64 %16, 16
  call void @llvm.assume(i1 %17)
  br label %_ZNSt7__cxx1112basic_stringIcSt11char_traitsIcESaIcEED2Ev.exit

_ZNKSt7__cxx1112basic_stringIcSt11char_traitsIcESaIcEE11_M_is_localEv.exit.i.i: ; preds = %10
  call void @_ZdlPv(ptr noundef %12) #27
  br label %_ZNSt7__cxx1112basic_stringIcSt11char_traitsIcESaIcEED2Ev.exit

_ZNSt7__cxx1112basic_stringIcSt11char_traitsIcESaIcEED2Ev.exit: ; preds = %_ZNKSt7__cxx1112basic_stringIcSt11char_traitsIcESaIcEE11_M_is_localEv.exit.i.i, %_ZNKSt7__cxx1112basic_stringIcSt11char_traitsIcESaIcEE11_M_is_localEv.exit.thread.i.i
  call void @llvm.lifetime.end.p0(i64 1, ptr nonnull %5) #25
  call void @llvm.lifetime.end.p0(i64 32, ptr nonnull %4) #25
  resume { ptr, i32 } %11

18:                                               ; preds = %3
  %19 = load ptr, ptr %7, align 8, !tbaa !8
  %20 = getelementptr inbounds nuw i8, ptr %19, i64 32
  %21 = load ptr, ptr %20, align 8
  tail call void %21(ptr noundef nonnull align 8 dereferenceable(304) %7, ptr noundef nonnull align 8 dereferenceable(24) %1, ptr noundef nonnull align 8 dereferenceable(24) %2)
  %22 = tail call noundef nonnull align 8 dereferenceable(24) ptr @_ZNSt6vectorIN2cv4util7variantIJNS1_9monostateENS0_8GMatDescENS0_11GScalarDescENS0_10GArrayDescENS0_11GOpaqueDescENS0_10GFrameDescEEEESaIS9_EEaSERKSB_(ptr noundef nonnull align 8 dereferenceable(24) %0, ptr noundef nonnull align 8 dereferenceable(24) %1)
  ret void
}